target datalayout = "e-m:e-p270:32:32-p271:32:32-p272:64:64-i64:64-i128:128-f80:128-n8:16:32:64-S128"
target triple = "x86_64-pc-linux-gnu"

%"class.llvm::CodeViewContext" = type <{ ptr, %"class.llvm::StringMap", ptr, i8, [7 x i8], %"class.llvm::SmallVector", %"class.std::map", %"class.std::vector", %"class.std::vector.3", i8, [7 x i8] }>
%"class.llvm::StringMap" = type { %"class.llvm::StringMapImpl" }
%"class.llvm::StringMapImpl" = type { ptr, i32, i32, i32, i32 }
%"class.llvm::SmallVector" = type { %"class.llvm::SmallVectorImpl", %"struct.llvm::SmallVectorStorage" }
%"class.llvm::SmallVectorImpl" = type { %"class.llvm::SmallVectorTemplateBase" }
%"class.llvm::SmallVectorTemplateBase" = type { %"class.llvm::SmallVectorTemplateCommon" }
%"class.llvm::SmallVectorTemplateCommon" = type { %"class.llvm::SmallVectorBase" }
%"class.llvm::SmallVectorBase" = type { ptr, i32, i32 }
%"struct.llvm::SmallVectorStorage" = type { [128 x i8] }
%"class.std::map" = type { %"class.std::_Rb_tree" }
%"class.std::_Rb_tree" = type { %"struct.std::_Rb_tree<unsigned int, std::pair<const unsigned int, std::pair<unsigned long, unsigned long>>, std::_Select1st<std::pair<const unsigned int, std::pair<unsigned long, unsigned long>>>, std::less<unsigned int>>::_Rb_tree_impl" }
%"struct.std::_Rb_tree<unsigned int, std::pair<const unsigned int, std::pair<unsigned long, unsigned long>>, std::_Select1st<std::pair<const unsigned int, std::pair<unsigned long, unsigned long>>>, std::less<unsigned int>>::_Rb_tree_impl" = type { [8 x i8], %"struct.std::_Rb_tree_header" }
%"struct.std::_Rb_tree_header" = type { %"struct.std::_Rb_tree_node_base", i64 }
%"struct.std::_Rb_tree_node_base" = type { i32, ptr, ptr, ptr }
%"class.std::vector" = type { %"struct.std::_Vector_base" }
%"struct.std::_Vector_base" = type { %"struct.std::_Vector_base<llvm::MCCVLoc, std::allocator<llvm::MCCVLoc>>::_Vector_impl" }
%"struct.std::_Vector_base<llvm::MCCVLoc, std::allocator<llvm::MCCVLoc>>::_Vector_impl" = type { %"struct.std::_Vector_base<llvm::MCCVLoc, std::allocator<llvm::MCCVLoc>>::_Vector_impl_data" }
%"struct.std::_Vector_base<llvm::MCCVLoc, std::allocator<llvm::MCCVLoc>>::_Vector_impl_data" = type { ptr, ptr, ptr }
%"class.std::vector.3" = type { %"struct.std::_Vector_base.4" }
%"struct.std::_Vector_base.4" = type { %"struct.std::_Vector_base<llvm::MCCVFunctionInfo, std::allocator<llvm::MCCVFunctionInfo>>::_Vector_impl" }
%"struct.std::_Vector_base<llvm::MCCVFunctionInfo, std::allocator<llvm::MCCVFunctionInfo>>::_Vector_impl" = type { %"struct.std::_Vector_base<llvm::MCCVFunctionInfo, std::allocator<llvm::MCCVFunctionInfo>>::_Vector_impl_data" }
%"struct.std::_Vector_base<llvm::MCCVFunctionInfo, std::allocator<llvm::MCCVFunctionInfo>>::_Vector_impl_data" = type { ptr, ptr, ptr }
%"struct.llvm::MCCVFunctionInfo" = type { i32, %"struct.llvm::MCCVFunctionInfo::LineInfo", ptr, %"class.llvm::DenseMap.167" }
%"struct.llvm::MCCVFunctionInfo::LineInfo" = type { i32, i32, i32 }
%"class.llvm::DenseMap.167" = type <{ ptr, i32, i32, i32, [4 x i8] }>

; Function Attrs: mustprogress nounwind uwtable
define linkonce_odr hidden noundef zeroext i1 @_ZNK4llvm16MCCVFunctionInfo25isUnallocatedFunctionInfoEv(ptr noundef nonnull align 8 dereferenceable(48) %0) #0 comdat align 2 {
  %2 = alloca ptr, align 8
  store ptr %0, ptr %2, align 8
  %3 = load ptr, ptr %2, align 8
  %4 = getelementptr inbounds nuw %"struct.llvm::MCCVFunctionInfo", ptr %3, i32 0, i32 0
  %5 = load i32, ptr %4, align 8
  %6 = icmp eq i32 %5, 0
  ret i1 %6
}

; Function Attrs: mustprogress nounwind uwtable
define linkonce_odr hidden noundef nonnull align 8 dereferenceable(48) ptr @_ZNSt6vectorIN4llvm16MCCVFunctionInfoESaIS1_EEixEm(ptr noundef nonnull align 8 dereferenceable(24) %0, i64 noundef %1) #0 comdat align 2 {
  %3 = alloca ptr, align 8
  %4 = alloca i64, align 8
  store ptr %0, ptr %3, align 8
  store i64 %1, ptr %4, align 8
  %5 = load ptr, ptr %3, align 8
  %6 = getelementptr inbounds nuw %"struct.std::_Vector_base.4", ptr %5, i32 0, i32 0
  %7 = getelementptr inbounds nuw %"struct.std::_Vector_base<llvm::MCCVFunctionInfo, std::allocator<llvm::MCCVFunctionInfo>>::_Vector_impl_data", ptr %6, i32 0, i32 0
  %8 = load ptr, ptr %7, align 8
  %9 = load i64, ptr %4, align 8
  %10 = getelementptr inbounds %"struct.llvm::MCCVFunctionInfo", ptr %8, i64 %9
  ret ptr %10
}

; Function Attrs: mustprogress nounwind uwtable
define linkonce_odr hidden noundef i64 @_ZNKSt6vectorIN4llvm16MCCVFunctionInfoESaIS1_EE4sizeEv(ptr noundef nonnull align 8 dereferenceable(24) %0) #0 comdat align 2 {
  %2 = alloca ptr, align 8
  store ptr %0, ptr %2, align 8
  %3 = load ptr, ptr %2, align 8
  %4 = getelementptr inbounds nuw %"struct.std::_Vector_base.4", ptr %3, i32 0, i32 0
  %5 = getelementptr inbounds nuw %"struct.std::_Vector_base<llvm::MCCVFunctionInfo, std::allocator<llvm::MCCVFunctionInfo>>::_Vector_impl_data", ptr %4, i32 0, i32 1
  %6 = load ptr, ptr %5, align 8
  %7 = getelementptr inbounds nuw %"struct.std::_Vector_base.4", ptr %3, i32 0, i32 0
  %8 = getelementptr inbounds nuw %"struct.std::_Vector_base<llvm::MCCVFunctionInfo, std::allocator<llvm::MCCVFunctionInfo>>::_Vector_impl_data", ptr %7, i32 0, i32 0
  %9 = load ptr, ptr %8, align 8
  %10 = ptrtoint ptr %6 to i64
  %11 = ptrtoint ptr %9 to i64
  %12 = sub i64 %10, %11
  %13 = sdiv exact i64 %12, 48
  ret i64 %13
}

; Function Attrs: mustprogress nounwind uwtable
define dso_local noundef ptr @_ZN4llvm15CodeViewContext17getCVFunctionInfoEj(ptr noundef nonnull align 8 dereferenceable(289) %0, i32 noundef %1) #0 align 2 {
  %3 = alloca ptr, align 8
  %4 = alloca ptr, align 8
  %5 = alloca i32, align 4
  store ptr %0, ptr %4, align 8
  store i32 %1, ptr %5, align 4
  %6 = load ptr, ptr %4, align 8
  %7 = load i32, ptr %5, align 4
  %8 = zext i32 %7 to i64
  %9 = getelementptr inbounds nuw %"class.llvm::CodeViewContext", ptr %6, i32 0, i32 8
  %10 = call noundef i64 @_ZNKSt6vectorIN4llvm16MCCVFunctionInfoESaIS1_EE4sizeEv(ptr noundef nonnull align 8 dereferenceable(24) %9) #10
  %11 = icmp uge i64 %8, %10
  br i1 %11, label %12, label %13

12:                                               ; preds = %2
  store ptr null, ptr %3, align 8
  br label %25

13:                                               ; preds = %2
  %14 = getelementptr inbounds nuw %"class.llvm::CodeViewContext", ptr %6, i32 0, i32 8
  %15 = load i32, ptr %5, align 4
  %16 = zext i32 %15 to i64
  %17 = call noundef nonnull align 8 dereferenceable(48) ptr @_ZNSt6vectorIN4llvm16MCCVFunctionInfoESaIS1_EEixEm(ptr noundef nonnull align 8 dereferenceable(24) %14, i64 noundef %16) #10
  %18 = call noundef zeroext i1 @_ZNK4llvm16MCCVFunctionInfo25isUnallocatedFunctionInfoEv(ptr noundef nonnull align 8 dereferenceable(48) %17)
  br i1 %18, label %19, label %20

19:                                               ; preds = %13
  store ptr null, ptr %3, align 8
  br label %25

20:                                               ; preds = %13
  %21 = getelementptr inbounds nuw %"class.llvm::CodeViewContext", ptr %6, i32 0, i32 8
  %22 = load i32, ptr %5, align 4
  %23 = zext i32 %22 to i64
  %24 = call noundef nonnull align 8 dereferenceable(48) ptr @_ZNSt6vectorIN4llvm16MCCVFunctionInfoESaIS1_EEixEm(ptr noundef nonnull align 8 dereferenceable(24) %21, i64 noundef %23) #10
  store ptr %24, ptr %3, align 8
  br label %25

25:                                               ; preds = %20, %19, %12
  %26 = load ptr, ptr %3, align 8
  ret ptr %26
}