; Function Attrs: mustprogress nofree norecurse nosync nounwind willreturn memory(read, inaccessiblemem: none) uwtable
define dso_local noundef ptr @_ZN4llvm15CodeViewContext17getCVFunctionInfoEj(ptr nocapture noundef nonnull readonly align 8 dereferenceable(289) %0, i32 noundef %1) local_unnamed_addr #3 align 2 {
  %3 = zext i32 %1 to i64
  %4 = getelementptr inbounds nuw i8, ptr %0, i64 264
  %5 = getelementptr inbounds i8, ptr %0, i64 272
  %6 = load ptr, ptr %5, align 8
  %7 = load ptr, ptr %4, align 8
  %8 = ptrtoint ptr %6 to i64
  %9 = ptrtoint ptr %7 to i64
  %10 = sub i64 %8, %9
  %11 = sdiv exact i64 %10, 48
  %.not = icmp ugt i64 %11, %3
  br i1 %.not, label %12, label %16

12:                                               ; preds = %2
  %13 = getelementptr inbounds %"struct.llvm::MCCVFunctionInfo", ptr %7, i64 %3
  %14 = load i32, ptr %13, align 8
  %15 = icmp eq i32 %14, 0
  %spec.select = select i1 %15, ptr null, ptr %13
  br label %16

16:                                               ; preds = %12, %2
  %.0 = phi ptr [ null, %2 ], [ %spec.select, %12 ]
  ret ptr %.0
}